; Function Attrs: null_pointer_is_valid sspstrong uwtable
define internal void @catapult_dct2000_close(ptr noundef readonly captures(none) %0) #0 {
  %2 = getelementptr inbounds nuw i8, ptr %0, i64 96
  %3 = load ptr, ptr %2, align 8
  %4 = getelementptr inbounds nuw i8, ptr %3, i64 224
  %5 = load ptr, ptr %4, align 8
  %6 = tail call i32 @g_hash_table_foreach_remove(ptr noundef %5, ptr noundef nonnull @free_line_prefix_info, ptr noundef null)
  %7 = load ptr, ptr %4, align 8
  tail call void @g_hash_table_destroy(ptr noundef %7)
  ret void
}